; ModuleID = '30/2037.c'
source_filename = "30/2037.c"
target datalayout = "e-m:e-p270:32:32-p271:32:32-p272:64:64-i64:64-f80:128-n8:16:32:64-S128"
target triple = "x86_64-pc-linux-gnu"

@.str = private unnamed_addr constant [3 x i8] c"%d\00", align 1

; Function Attrs: noinline nounwind uwtable
define dso_local i32 @main() #0 {
  %1 = alloca i32, align 4
  %2 = alloca i32, align 4
  %3 = alloca i32, align 4
  %4 = alloca i32, align 4
  store i32 0, i32* %1, align 4
  store i32 0, i32* %3, align 4
  %5 = call i32 (i8*, ...) @__isoc99_scanf(i8* getelementptr inbounds ([3 x i8], [3 x i8]* @.str, i64 0, i64 0), i32* %4)
  store i32 1, i32* %2, align 4
  br label %6

6:                                                ; preds = %75, %0
  %7 = load i32, i32* %2, align 4
  %8 = load i32, i32* %4, align 4
  %9 = icmp sle i32 %7, %8
  br i1 %9, label %10, label %78

10:                                               ; preds = %6
  %11 = load i32, i32* %2, align 4
  %12 = srem i32 %11, 7
  %13 = icmp eq i32 %12, 0
  br i1 %13, label %14, label %15

14:                                               ; preds = %10
  br label %75

15:                                               ; preds = %10
  %16 = load i32, i32* %2, align 4
  %17 = icmp eq i32 %16, 17
  br i1 %17, label %66, label %18

18:                                               ; preds = %15
  %19 = load i32, i32* %2, align 4
  %20 = icmp eq i32 %19, 27
  br i1 %20, label %66, label %21

21:                                               ; preds = %18
  %22 = load i32, i32* %2, align 4
  %23 = icmp eq i32 %22, 37
  br i1 %23, label %66, label %24

24:                                               ; preds = %21
  %25 = load i32, i32* %2, align 4
  %26 = icmp eq i32 %25, 47
  br i1 %26, label %66, label %27

27:                                               ; preds = %24
  %28 = load i32, i32* %2, align 4
  %29 = icmp eq i32 %28, 57
  br i1 %29, label %66, label %30

30:                                               ; preds = %27
  %31 = load i32, i32* %2, align 4
  %32 = icmp eq i32 %31, 67
  br i1 %32, label %66, label %33

33:                                               ; preds = %30
  %34 = load i32, i32* %2, align 4
  %35 = icmp eq i32 %34, 77
  br i1 %35, label %66, label %36

36:                                               ; preds = %33
  %37 = load i32, i32* %2, align 4
  %38 = icmp eq i32 %37, 87
  br i1 %38, label %66, label %39

39:                                               ; preds = %36
  %40 = load i32, i32* %2, align 4
  %41 = icmp eq i32 %40, 97
  br i1 %41, label %66, label %42

42:                                               ; preds = %39
  %43 = load i32, i32* %2, align 4
  %44 = icmp eq i32 %43, 71
  br i1 %44, label %66, label %45

45:                                               ; preds = %42
  %46 = load i32, i32* %2, align 4
  %47 = icmp eq i32 %46, 72
  br i1 %47, label %66, label %48

48:                                               ; preds = %45
  %49 = load i32, i32* %2, align 4
  %50 = icmp eq i32 %49, 73
  br i1 %50, label %66, label %51

51:                                               ; preds = %48
  %52 = load i32, i32* %2, align 4
  %53 = icmp eq i32 %52, 74
  br i1 %53, label %66, label %54

54:                                               ; preds = %51
  %55 = load i32, i32* %2, align 4
  %56 = icmp eq i32 %55, 75
  br i1 %56, label %66, label %57

57:                                               ; preds = %54
  %58 = load i32, i32* %2, align 4
  %59 = icmp eq i32 %58, 76
  br i1 %59, label %66, label %60

60:                                               ; preds = %57
  %61 = load i32, i32* %2, align 4
  %62 = icmp eq i32 %61, 78
  br i1 %62, label %66, label %63

63:                                               ; preds = %60
  %64 = load i32, i32* %2, align 4
  %65 = icmp eq i32 %64, 79
  br i1 %65, label %66, label %67

66:                                               ; preds = %63, %60, %57, %54, %51, %48, %45, %42, %39, %36, %33, %30, %27, %24, %21, %18, %15
  br label %75

67:                                               ; preds = %63
  %68 = load i32, i32* %2, align 4
  %69 = load i32, i32* %2, align 4
  %70 = mul nsw i32 %68, %69
  %71 = load i32, i32* %3, align 4
  %72 = add nsw i32 %71, %70
  store i32 %72, i32* %3, align 4
  br label %73

73:                                               ; preds = %67
  br label %74

74:                                               ; preds = %73
  br label %75

75:                                               ; preds = %74, %66, %14
  %76 = load i32, i32* %2, align 4
  %77 = add nsw i32 %76, 1
  store i32 %77, i32* %2, align 4
  br label %6

78:                                               ; preds = %6
  %79 = load i32, i32* %3, align 4
  %80 = call i32 (i8*, ...) @printf(i8* getelementptr inbounds ([3 x i8], [3 x i8]* @.str, i64 0, i64 0), i32 %79)
  ret i32 0
}

declare dso_local i32 @__isoc99_scanf(i8*, ...) #1

declare dso_local i32 @printf(i8*, ...) #1


!llvm.module.flags = !{!0}
!llvm.ident = !{!1}

!0 = !{i32 1, !"wchar_size", i32 4}
!1 = !{!"clang version 10.0.0-4ubuntu1 "}
